; ModuleID = '39/1216.c'
source_filename = "39/1216.c"
target datalayout = "e-m:e-p270:32:32-p271:32:32-p272:64:64-i64:64-f80:128-n8:16:32:64-S128"
target triple = "x86_64-pc-linux-gnu"

@.str = private unnamed_addr constant [3 x i8] c"%d\00", align 1
@.str.1 = private unnamed_addr constant [18 x i8] c"%s %d %d %c %c %d\00", align 1
@.str.2 = private unnamed_addr constant [4 x i8] c"%s\0A\00", align 1
@.str.3 = private unnamed_addr constant [4 x i8] c"%d\0A\00", align 1

; Function Attrs: noinline nounwind uwtable
define dso_local i32 @main() #0 {
  %1 = alloca i32, align 4
  %2 = alloca i32, align 4
  %3 = alloca i32, align 4
  %4 = alloca [100 x i32], align 16
  %5 = alloca [100 x i32], align 16
  %6 = alloca [100 x i32], align 16
  %7 = alloca [100 x i32], align 16
  %8 = alloca i32, align 4
  %9 = alloca i32, align 4
  %10 = alloca i32, align 4
  %11 = alloca [100 x [21 x i8]], align 16
  %12 = alloca [100 x i8], align 16
  %13 = alloca [100 x i8], align 16
  store i32 0, i32* %1, align 4
  %14 = bitcast [100 x i32]* %7 to i8*
  call void @llvm.memset.p0i8.i64(i8* align 16 %14, i8 0, i64 400, i1 false)
  store i32 0, i32* %8, align 4
  %15 = call i32 (i8*, ...) @__isoc99_scanf(i8* getelementptr inbounds ([3 x i8], [3 x i8]* @.str, i64 0, i64 0), i32* %2)
  store i32 0, i32* %3, align 4
  br label %16

16:                                               ; preds = %133, %0
  %17 = load i32, i32* %3, align 4
  %18 = load i32, i32* %2, align 4
  %19 = icmp slt i32 %17, %18
  br i1 %19, label %20, label %136

20:                                               ; preds = %16
  %21 = load i32, i32* %3, align 4
  %22 = sext i32 %21 to i64
  %23 = getelementptr inbounds [100 x [21 x i8]], [100 x [21 x i8]]* %11, i64 0, i64 %22
  %24 = getelementptr inbounds [21 x i8], [21 x i8]* %23, i64 0, i64 0
  %25 = load i32, i32* %3, align 4
  %26 = sext i32 %25 to i64
  %27 = getelementptr inbounds [100 x i32], [100 x i32]* %4, i64 0, i64 %26
  %28 = load i32, i32* %3, align 4
  %29 = sext i32 %28 to i64
  %30 = getelementptr inbounds [100 x i32], [100 x i32]* %5, i64 0, i64 %29
  %31 = load i32, i32* %3, align 4
  %32 = sext i32 %31 to i64
  %33 = getelementptr inbounds [100 x i8], [100 x i8]* %13, i64 0, i64 %32
  %34 = load i32, i32* %3, align 4
  %35 = sext i32 %34 to i64
  %36 = getelementptr inbounds [100 x i8], [100 x i8]* %12, i64 0, i64 %35
  %37 = load i32, i32* %3, align 4
  %38 = sext i32 %37 to i64
  %39 = getelementptr inbounds [100 x i32], [100 x i32]* %6, i64 0, i64 %38
  %40 = call i32 (i8*, ...) @__isoc99_scanf(i8* getelementptr inbounds ([18 x i8], [18 x i8]* @.str.1, i64 0, i64 0), i8* %24, i32* %27, i32* %30, i8* %33, i8* %36, i32* %39)
  %41 = load i32, i32* %3, align 4
  %42 = sext i32 %41 to i64
  %43 = getelementptr inbounds [100 x i32], [100 x i32]* %4, i64 0, i64 %42
  %44 = load i32, i32* %43, align 4
  %45 = icmp sgt i32 %44, 80
  br i1 %45, label %46, label %58

46:                                               ; preds = %20
  %47 = load i32, i32* %3, align 4
  %48 = sext i32 %47 to i64
  %49 = getelementptr inbounds [100 x i32], [100 x i32]* %6, i64 0, i64 %48
  %50 = load i32, i32* %49, align 4
  %51 = icmp sgt i32 %50, 0
  br i1 %51, label %52, label %58

52:                                               ; preds = %46
  %53 = load i32, i32* %3, align 4
  %54 = sext i32 %53 to i64
  %55 = getelementptr inbounds [100 x i32], [100 x i32]* %7, i64 0, i64 %54
  %56 = load i32, i32* %55, align 4
  %57 = add nsw i32 %56, 8000
  store i32 %57, i32* %55, align 4
  br label %58

58:                                               ; preds = %52, %46, %20
  %59 = load i32, i32* %3, align 4
  %60 = sext i32 %59 to i64
  %61 = getelementptr inbounds [100 x i32], [100 x i32]* %4, i64 0, i64 %60
  %62 = load i32, i32* %61, align 4
  %63 = icmp sgt i32 %62, 85
  br i1 %63, label %64, label %76

64:                                               ; preds = %58
  %65 = load i32, i32* %3, align 4
  %66 = sext i32 %65 to i64
  %67 = getelementptr inbounds [100 x i32], [100 x i32]* %5, i64 0, i64 %66
  %68 = load i32, i32* %67, align 4
  %69 = icmp sgt i32 %68, 80
  br i1 %69, label %70, label %76

70:                                               ; preds = %64
  %71 = load i32, i32* %3, align 4
  %72 = sext i32 %71 to i64
  %73 = getelementptr inbounds [100 x i32], [100 x i32]* %7, i64 0, i64 %72
  %74 = load i32, i32* %73, align 4
  %75 = add nsw i32 %74, 4000
  store i32 %75, i32* %73, align 4
  br label %76

76:                                               ; preds = %70, %64, %58
  %77 = load i32, i32* %3, align 4
  %78 = sext i32 %77 to i64
  %79 = getelementptr inbounds [100 x i32], [100 x i32]* %4, i64 0, i64 %78
  %80 = load i32, i32* %79, align 4
  %81 = icmp sgt i32 %80, 90
  br i1 %81, label %82, label %88

82:                                               ; preds = %76
  %83 = load i32, i32* %3, align 4
  %84 = sext i32 %83 to i64
  %85 = getelementptr inbounds [100 x i32], [100 x i32]* %7, i64 0, i64 %84
  %86 = load i32, i32* %85, align 4
  %87 = add nsw i32 %86, 2000
  store i32 %87, i32* %85, align 4
  br label %88

88:                                               ; preds = %82, %76
  %89 = load i32, i32* %3, align 4
  %90 = sext i32 %89 to i64
  %91 = getelementptr inbounds [100 x i32], [100 x i32]* %4, i64 0, i64 %90
  %92 = load i32, i32* %91, align 4
  %93 = icmp sgt i32 %92, 85
  br i1 %93, label %94, label %107

94:                                               ; preds = %88
  %95 = load i32, i32* %3, align 4
  %96 = sext i32 %95 to i64
  %97 = getelementptr inbounds [100 x i8], [100 x i8]* %12, i64 0, i64 %96
  %98 = load i8, i8* %97, align 1
  %99 = sext i8 %98 to i32
  %100 = icmp eq i32 %99, 89
  br i1 %100, label %101, label %107

101:                                              ; preds = %94
  %102 = load i32, i32* %3, align 4
  %103 = sext i32 %102 to i64
  %104 = getelementptr inbounds [100 x i32], [100 x i32]* %7, i64 0, i64 %103
  %105 = load i32, i32* %104, align 4
  %106 = add nsw i32 %105, 1000
  store i32 %106, i32* %104, align 4
  br label %107

107:                                              ; preds = %101, %94, %88
  %108 = load i32, i32* %3, align 4
  %109 = sext i32 %108 to i64
  %110 = getelementptr inbounds [100 x i32], [100 x i32]* %5, i64 0, i64 %109
  %111 = load i32, i32* %110, align 4
  %112 = icmp sgt i32 %111, 80
  br i1 %112, label %113, label %126

113:                                              ; preds = %107
  %114 = load i32, i32* %3, align 4
  %115 = sext i32 %114 to i64
  %116 = getelementptr inbounds [100 x i8], [100 x i8]* %13, i64 0, i64 %115
  %117 = load i8, i8* %116, align 1
  %118 = sext i8 %117 to i32
  %119 = icmp eq i32 %118, 89
  br i1 %119, label %120, label %126

120:                                              ; preds = %113
  %121 = load i32, i32* %3, align 4
  %122 = sext i32 %121 to i64
  %123 = getelementptr inbounds [100 x i32], [100 x i32]* %7, i64 0, i64 %122
  %124 = load i32, i32* %123, align 4
  %125 = add nsw i32 %124, 850
  store i32 %125, i32* %123, align 4
  br label %126

126:                                              ; preds = %120, %113, %107
  %127 = load i32, i32* %3, align 4
  %128 = sext i32 %127 to i64
  %129 = getelementptr inbounds [100 x i32], [100 x i32]* %7, i64 0, i64 %128
  %130 = load i32, i32* %129, align 4
  %131 = load i32, i32* %8, align 4
  %132 = add nsw i32 %131, %130
  store i32 %132, i32* %8, align 4
  br label %133

133:                                              ; preds = %126
  %134 = load i32, i32* %3, align 4
  %135 = add nsw i32 %134, 1
  store i32 %135, i32* %3, align 4
  br label %16

136:                                              ; preds = %16
  %137 = getelementptr inbounds [100 x i32], [100 x i32]* %7, i64 0, i64 0
  %138 = load i32, i32* %137, align 16
  store i32 %138, i32* %9, align 4
  store i32 0, i32* %10, align 4
  store i32 0, i32* %3, align 4
  br label %139

139:                                              ; preds = %157, %136
  %140 = load i32, i32* %3, align 4
  %141 = load i32, i32* %2, align 4
  %142 = icmp slt i32 %140, %141
  br i1 %142, label %143, label %160

143:                                              ; preds = %139
  %144 = load i32, i32* %3, align 4
  %145 = sext i32 %144 to i64
  %146 = getelementptr inbounds [100 x i32], [100 x i32]* %7, i64 0, i64 %145
  %147 = load i32, i32* %146, align 4
  %148 = load i32, i32* %9, align 4
  %149 = icmp sgt i32 %147, %148
  br i1 %149, label %150, label %156

150:                                              ; preds = %143
  %151 = load i32, i32* %3, align 4
  %152 = sext i32 %151 to i64
  %153 = getelementptr inbounds [100 x i32], [100 x i32]* %7, i64 0, i64 %152
  %154 = load i32, i32* %153, align 4
  store i32 %154, i32* %9, align 4
  %155 = load i32, i32* %3, align 4
  store i32 %155, i32* %10, align 4
  br label %156

156:                                              ; preds = %150, %143
  br label %157

157:                                              ; preds = %156
  %158 = load i32, i32* %3, align 4
  %159 = add nsw i32 %158, 1
  store i32 %159, i32* %3, align 4
  br label %139

160:                                              ; preds = %139
  %161 = load i32, i32* %10, align 4
  %162 = sext i32 %161 to i64
  %163 = getelementptr inbounds [100 x [21 x i8]], [100 x [21 x i8]]* %11, i64 0, i64 %162
  %164 = getelementptr inbounds [21 x i8], [21 x i8]* %163, i64 0, i64 0
  %165 = call i32 (i8*, ...) @printf(i8* getelementptr inbounds ([4 x i8], [4 x i8]* @.str.2, i64 0, i64 0), i8* %164)
  %166 = load i32, i32* %10, align 4
  %167 = sext i32 %166 to i64
  %168 = getelementptr inbounds [100 x i32], [100 x i32]* %7, i64 0, i64 %167
  %169 = load i32, i32* %168, align 4
  %170 = call i32 (i8*, ...) @printf(i8* getelementptr inbounds ([4 x i8], [4 x i8]* @.str.3, i64 0, i64 0), i32 %169)
  %171 = load i32, i32* %8, align 4
  %172 = call i32 (i8*, ...) @printf(i8* getelementptr inbounds ([4 x i8], [4 x i8]* @.str.3, i64 0, i64 0), i32 %171)
  ret i32 0
}

; Function Attrs: argmemonly nounwind willreturn
declare void @llvm.memset.p0i8.i64(i8* nocapture writeonly, i8, i64, i1 immarg) #1

declare dso_local i32 @__isoc99_scanf(i8*, ...) #2

declare dso_local i32 @printf(i8*, ...) #2


!llvm.module.flags = !{!0}
!llvm.ident = !{!1}

!0 = !{i32 1, !"wchar_size", i32 4}
!1 = !{!"clang version 10.0.0-4ubuntu1 "}
